; Function Attrs: mustprogress nofree norecurse nosync nounwind willreturn memory(read, inaccessiblemem: none) uwtable
define dso_local noundef zeroext i1 @_ZNK4node4quic7Session17is_silent_closingEv(ptr nocapture noundef nonnull readonly align 8 dereferenceable(2616) %this) local_unnamed_addr #11 align 2 {
entry:
  %ptr_.i = getelementptr inbounds i8, ptr %this, i64 128
  %0 = load ptr, ptr %ptr_.i, align 8
  %silent_close = getelementptr inbounds i8, ptr %0, i64 6
  %1 = load i8, ptr %silent_close, align 2
  %tobool = icmp ne i8 %1, 0
  ret i1 %tobool
}